target datalayout = "e-m:e-p270:32:32-p271:32:32-p272:64:64-i64:64-i128:128-f80:128-n8:16:32:64-S128"
target triple = "x86_64-pc-linux-gnu"

%"class.open3d::core::SmallVectorBase" = type { ptr, i32, i32 }

; Function Attrs: mustprogress nounwind ssp uwtable
define linkonce_odr noundef ptr @_ZNK6open3d4core25SmallVectorTemplateCommonIlvE5beginEv(ptr noundef nonnull align 8 dereferenceable(16) %0) #2 comdat align 2 {
  %2 = alloca ptr, align 8
  store ptr %0, ptr %2, align 8, !tbaa !20
  %3 = load ptr, ptr %2, align 8
  %4 = getelementptr inbounds nuw %"class.open3d::core::SmallVectorBase", ptr %3, i32 0, i32 0
  %5 = load ptr, ptr %4, align 8, !tbaa !22
  ret ptr %5
}

; Function Attrs: mustprogress ssp uwtable
define linkonce_odr noundef nonnull align 8 dereferenceable(8) ptr @_ZNK6open3d4core25SmallVectorTemplateCommonIlvEixEm(ptr noundef nonnull align 8 dereferenceable(16) %0, i64 noundef %1) #0 comdat align 2 {
  %3 = alloca ptr, align 8
  %4 = alloca i64, align 8
  store ptr %0, ptr %3, align 8, !tbaa !20
  store i64 %1, ptr %4, align 8, !tbaa !9
  %5 = load ptr, ptr %3, align 8
  %6 = call noundef ptr @_ZNK6open3d4core25SmallVectorTemplateCommonIlvE5beginEv(ptr noundef nonnull align 8 dereferenceable(16) %5)
  %7 = load i64, ptr %4, align 8, !tbaa !9
  %8 = getelementptr inbounds nuw i64, ptr %6, i64 %7
  ret ptr %8
}

; Function Attrs: inlinehint mustprogress nounwind ssp uwtable
define linkonce_odr noundef nonnull align 8 dereferenceable(8) ptr @_ZSt3minIlERKT_S2_S2_(ptr noundef nonnull align 8 dereferenceable(8) %0, ptr noundef nonnull align 8 dereferenceable(8) %1) #3 comdat {
  %3 = alloca ptr, align 8
  %4 = alloca ptr, align 8
  %5 = alloca ptr, align 8
  store ptr %0, ptr %4, align 8, !tbaa !18
  store ptr %1, ptr %5, align 8, !tbaa !18
  %6 = load ptr, ptr %5, align 8, !tbaa !18
  %7 = load i64, ptr %6, align 8, !tbaa !9
  %8 = load ptr, ptr %4, align 8, !tbaa !18
  %9 = load i64, ptr %8, align 8, !tbaa !9
  %10 = icmp slt i64 %7, %9
  br i1 %10, label %11, label %13

11:                                               ; preds = %2
  %12 = load ptr, ptr %5, align 8, !tbaa !18
  store ptr %12, ptr %3, align 8
  br label %15

13:                                               ; preds = %2
  %14 = load ptr, ptr %4, align 8, !tbaa !18
  store ptr %14, ptr %3, align 8
  br label %15

15:                                               ; preds = %13, %11
  %16 = load ptr, ptr %3, align 8
  ret ptr %16
}

; Function Attrs: mustprogress nounwind ssp uwtable
define linkonce_odr noundef i64 @_ZNK6open3d4core15SmallVectorBaseIjE4sizeEv(ptr noundef nonnull align 8 dereferenceable(16) %0) #2 comdat align 2 {
  %2 = alloca ptr, align 8
  store ptr %0, ptr %2, align 8, !tbaa !13
  %3 = load ptr, ptr %2, align 8
  %4 = getelementptr inbounds nuw %"class.open3d::core::SmallVectorBase", ptr %3, i32 0, i32 1
  %5 = load i32, ptr %4, align 8, !tbaa !15
  %6 = zext i32 %5 to i64
  ret i64 %6
}

; Function Attrs: mustprogress ssp uwtable
define noundef zeroext i1 @_ZN6open3d4core10shape_util26IsCompatibleBroadcastShapeERKNS0_10SizeVectorES4_(ptr noundef nonnull align 8 dereferenceable(48) %0, ptr noundef nonnull align 8 dereferenceable(48) %1) #0 {
  %3 = alloca i1, align 1
  %4 = alloca ptr, align 8
  %5 = alloca ptr, align 8
  %6 = alloca i64, align 8
  %7 = alloca i64, align 8
  %8 = alloca i32, align 4
  %9 = alloca i64, align 8
  %10 = alloca i64, align 8
  %11 = alloca i64, align 8
  %12 = alloca i64, align 8
  store ptr %0, ptr %4, align 8, !tbaa !4
  store ptr %1, ptr %5, align 8, !tbaa !4
  call void @llvm.lifetime.start.p0(i64 8, ptr %6) #25
  %13 = load ptr, ptr %4, align 8, !tbaa !4
  %14 = call noundef i64 @_ZNK6open3d4core15SmallVectorBaseIjE4sizeEv(ptr noundef nonnull align 8 dereferenceable(16) %13)
  store i64 %14, ptr %6, align 8, !tbaa !9
  call void @llvm.lifetime.start.p0(i64 8, ptr %7) #25
  %15 = load ptr, ptr %5, align 8, !tbaa !4
  %16 = call noundef i64 @_ZNK6open3d4core15SmallVectorBaseIjE4sizeEv(ptr noundef nonnull align 8 dereferenceable(16) %15)
  store i64 %16, ptr %7, align 8, !tbaa !9
  %17 = load i64, ptr %6, align 8, !tbaa !9
  %18 = icmp eq i64 %17, 0
  br i1 %18, label %22, label %19

19:                                               ; preds = %2
  %20 = load i64, ptr %7, align 8, !tbaa !9
  %21 = icmp eq i64 %20, 0
  br i1 %21, label %22, label %23

22:                                               ; preds = %19, %2
  store i1 true, ptr %3, align 1
  store i32 1, ptr %8, align 4
  br label %67

23:                                               ; preds = %19
  call void @llvm.lifetime.start.p0(i64 8, ptr %9) #25
  %24 = call noundef nonnull align 8 dereferenceable(8) ptr @_ZSt3minIlERKT_S2_S2_(ptr noundef nonnull align 8 dereferenceable(8) %6, ptr noundef nonnull align 8 dereferenceable(8) %7)
  %25 = load i64, ptr %24, align 8, !tbaa !9
  store i64 %25, ptr %9, align 8, !tbaa !9
  call void @llvm.lifetime.start.p0(i64 8, ptr %10) #25
  store i64 0, ptr %10, align 8, !tbaa !9
  br label %26

26:                                               ; preds = %60, %23
  %27 = load i64, ptr %10, align 8, !tbaa !9
  %28 = load i64, ptr %9, align 8, !tbaa !9
  %29 = icmp slt i64 %27, %28
  br i1 %29, label %31, label %30

30:                                               ; preds = %26
  store i32 2, ptr %8, align 4
  br label %63

31:                                               ; preds = %26
  call void @llvm.lifetime.start.p0(i64 8, ptr %11) #25
  %32 = load ptr, ptr %4, align 8, !tbaa !4
  %33 = load i64, ptr %6, align 8, !tbaa !9
  %34 = sub nsw i64 %33, 1
  %35 = load i64, ptr %10, align 8, !tbaa !9
  %36 = sub nsw i64 %34, %35
  %37 = call noundef nonnull align 8 dereferenceable(8) ptr @_ZNK6open3d4core25SmallVectorTemplateCommonIlvEixEm(ptr noundef nonnull align 8 dereferenceable(16) %32, i64 noundef %36)
  %38 = load i64, ptr %37, align 8, !tbaa !9
  store i64 %38, ptr %11, align 8, !tbaa !9
  call void @llvm.lifetime.start.p0(i64 8, ptr %12) #25
  %39 = load ptr, ptr %5, align 8, !tbaa !4
  %40 = load i64, ptr %7, align 8, !tbaa !9
  %41 = sub nsw i64 %40, 1
  %42 = load i64, ptr %10, align 8, !tbaa !9
  %43 = sub nsw i64 %41, %42
  %44 = call noundef nonnull align 8 dereferenceable(8) ptr @_ZNK6open3d4core25SmallVectorTemplateCommonIlvEixEm(ptr noundef nonnull align 8 dereferenceable(16) %39, i64 noundef %43)
  %45 = load i64, ptr %44, align 8, !tbaa !9
  store i64 %45, ptr %12, align 8, !tbaa !9
  %46 = load i64, ptr %11, align 8, !tbaa !9
  %47 = load i64, ptr %12, align 8, !tbaa !9
  %48 = icmp eq i64 %46, %47
  br i1 %48, label %56, label %49

49:                                               ; preds = %31
  %50 = load i64, ptr %11, align 8, !tbaa !9
  %51 = icmp eq i64 %50, 1
  br i1 %51, label %56, label %52

52:                                               ; preds = %49
  %53 = load i64, ptr %12, align 8, !tbaa !9
  %54 = icmp eq i64 %53, 1
  br i1 %54, label %56, label %55

55:                                               ; preds = %52
  store i1 false, ptr %3, align 1
  store i32 1, ptr %8, align 4
  br label %57

56:                                               ; preds = %52, %49, %31
  store i32 0, ptr %8, align 4
  br label %57

57:                                               ; preds = %56, %55
  call void @llvm.lifetime.end.p0(i64 8, ptr %12) #25
  call void @llvm.lifetime.end.p0(i64 8, ptr %11) #25
  %58 = load i32, ptr %8, align 4
  switch i32 %58, label %63 [
    i32 0, label %59
  ]

59:                                               ; preds = %57
  br label %60

60:                                               ; preds = %59
  %61 = load i64, ptr %10, align 8, !tbaa !9
  %62 = add nsw i64 %61, 1
  store i64 %62, ptr %10, align 8, !tbaa !9
  br label %26, !llvm.loop !11

63:                                               ; preds = %57, %30
  call void @llvm.lifetime.end.p0(i64 8, ptr %10) #25
  %64 = load i32, ptr %8, align 4
  switch i32 %64, label %66 [
    i32 2, label %65
  ]

65:                                               ; preds = %63
  store i1 true, ptr %3, align 1
  store i32 1, ptr %8, align 4
  br label %66

66:                                               ; preds = %65, %63
  call void @llvm.lifetime.end.p0(i64 8, ptr %9) #25
  br label %67

67:                                               ; preds = %66, %22
  call void @llvm.lifetime.end.p0(i64 8, ptr %7) #25
  call void @llvm.lifetime.end.p0(i64 8, ptr %6) #25
  %68 = load i1, ptr %3, align 1
  ret i1 %68
}