; Function Attrs: mustprogress nofree norecurse nosync nounwind ssp willreturn memory(read, inaccessiblemem: none) uwtable
define noundef zeroext i1 @_ZN6open3d4core10shape_util26IsCompatibleBroadcastShapeERKNS0_10SizeVectorES4_(ptr noundef nonnull readonly align 8 captures(none) dereferenceable(48) %0, ptr noundef nonnull readonly align 8 captures(none) dereferenceable(48) %1) local_unnamed_addr #0 {
  %3 = getelementptr inbounds nuw i8, ptr %0, i64 8
  %4 = load i32, ptr %3, align 8, !tbaa !4
  %5 = getelementptr inbounds nuw i8, ptr %1, i64 8
  %6 = load i32, ptr %5, align 8, !tbaa !4
  %7 = icmp eq i32 %4, 0
  %8 = icmp eq i32 %6, 0
  %or.cond = or i1 %7, %8
  br i1 %or.cond, label %.critedge, label %.lr.ph

.lr.ph:                                           ; preds = %2
  %9 = zext i32 %6 to i64
  %10 = zext i32 %4 to i64
  %.sroa.speculated = tail call i64 @llvm.umin.i64(i64 %9, i64 %10)
  %11 = load ptr, ptr %0, align 8, !tbaa !10
  %12 = getelementptr i64, ptr %11, i64 %10
  %13 = load ptr, ptr %1, align 8, !tbaa !10
  %14 = getelementptr i64, ptr %13, i64 %9
  br label %15

15:                                               ; preds = %15, %.lr.ph
  %.02332 = phi i64 [ 0, %.lr.ph ], [ %24, %15 ]
  %16 = xor i64 %.02332, -1
  %17 = getelementptr i64, ptr %12, i64 %16
  %18 = load i64, ptr %17, align 8, !tbaa !11
  %19 = getelementptr i64, ptr %14, i64 %16
  %20 = load i64, ptr %19, align 8, !tbaa !11
  %21 = icmp eq i64 %18, %20
  %22 = icmp eq i64 %18, 1
  %or.cond4 = or i1 %22, %21
  %23 = icmp eq i64 %20, 1
  %or.cond6 = or i1 %23, %or.cond4
  %24 = add nuw nsw i64 %.02332, 1
  %exitcond.not = icmp ne i64 %24, %.sroa.speculated
  %or.cond35.not = select i1 %or.cond6, i1 %exitcond.not, i1 false
  br i1 %or.cond35.not, label %15, label %.critedge, !llvm.loop !13

.critedge:                                        ; preds = %15, %2
  %.0 = phi i1 [ true, %2 ], [ %or.cond6, %15 ]
  ret i1 %.0
}